; Function Attrs: mustprogress nounwind uwtable
define internal fastcc void @_ZN12_GLOBAL__N_111DeclPrinter21VisitFileScopeAsmDeclEPN5clang16FileScopeAsmDeclE(ptr noundef nonnull align 8 dereferenceable(37) %0, ptr nocapture noundef readonly %1) unnamed_addr #0 align 2 {
  %3 = alloca %"class.llvm::StringRef", align 8
  %4 = load ptr, ptr %0, align 8
  %5 = getelementptr inbounds nuw i8, ptr %4, i64 24
  %6 = load ptr, ptr %5, align 8
  %7 = getelementptr inbounds nuw i8, ptr %4, i64 32
  %8 = load ptr, ptr %7, align 8
  %9 = ptrtoint ptr %6 to i64
  %10 = ptrtoint ptr %8 to i64
  %11 = sub i64 %9, %10
  %12 = icmp ult i64 %11, 7
  br i1 %12, label %13, label %15

13:                                               ; preds = %2
  %14 = tail call noundef nonnull align 8 dereferenceable(48) ptr @_ZN4llvm11raw_ostream5writeEPKcm(ptr noundef nonnull align 8 dereferenceable(48) %4, ptr noundef nonnull @.str.136, i64 noundef 7) #14
  br label %_ZN4llvm11raw_ostreamlsEPKc.exit

15:                                               ; preds = %2
  tail call void @llvm.memcpy.p0.p0.i64(ptr noundef nonnull align 1 dereferenceable(7) %8, ptr noundef nonnull align 1 dereferenceable(7) @.str.136, i64 7, i1 false)
  %16 = load ptr, ptr %7, align 8
  %17 = getelementptr inbounds i8, ptr %16, i64 7
  store ptr %17, ptr %7, align 8
  br label %_ZN4llvm11raw_ostreamlsEPKc.exit

_ZN4llvm11raw_ostreamlsEPKc.exit:                 ; preds = %13, %15
  %18 = getelementptr inbounds nuw i8, ptr %1, i64 40
  %19 = load ptr, ptr %18, align 8
  %20 = load ptr, ptr %0, align 8
  %21 = getelementptr inbounds nuw i8, ptr %0, i64 8
  %22 = getelementptr inbounds nuw i8, ptr %0, i64 32
  %23 = load i32, ptr %22, align 8
  store ptr @.str.4, ptr %3, align 8
  %24 = getelementptr inbounds nuw i8, ptr %3, i64 8
  store i64 1, ptr %24, align 8
  %25 = getelementptr inbounds nuw i8, ptr %0, i64 24
  %26 = load ptr, ptr %25, align 8
  tail call void @_ZNK5clang4Stmt11printPrettyERN4llvm11raw_ostreamEPNS_13PrinterHelperERKNS_14PrintingPolicyEjNS1_9StringRefEPKNS_10ASTContextE(ptr noundef nonnull align 8 dereferenceable(8) %19, ptr noundef nonnull align 8 dereferenceable(48) %20, ptr noundef null, ptr noundef nonnull align 8 dereferenceable(16) %21, i32 noundef %23, ptr noundef nonnull byval(%"class.llvm::StringRef") align 8 %3, ptr noundef %26) #14
  %27 = load ptr, ptr %0, align 8
  %28 = getelementptr inbounds nuw i8, ptr %27, i64 24
  %29 = load ptr, ptr %28, align 8
  %30 = getelementptr inbounds nuw i8, ptr %27, i64 32
  %31 = load ptr, ptr %30, align 8
  %32 = icmp eq ptr %29, %31
  br i1 %32, label %33, label %35

33:                                               ; preds = %_ZN4llvm11raw_ostreamlsEPKc.exit
  %34 = tail call noundef nonnull align 8 dereferenceable(48) ptr @_ZN4llvm11raw_ostream5writeEPKcm(ptr noundef nonnull align 8 dereferenceable(48) %27, ptr noundef nonnull @.str.27, i64 noundef 1) #14
  br label %_ZN4llvm11raw_ostreamlsEPKc.exit4

35:                                               ; preds = %_ZN4llvm11raw_ostreamlsEPKc.exit
  store i8 41, ptr %31, align 1
  %36 = load ptr, ptr %30, align 8
  %37 = getelementptr inbounds i8, ptr %36, i64 1
  store ptr %37, ptr %30, align 8
  br label %_ZN4llvm11raw_ostreamlsEPKc.exit4

_ZN4llvm11raw_ostreamlsEPKc.exit4:                ; preds = %33, %35
  ret void
}